; Function Attrs: nounwind uwtable
define dso_local void @srun_response(ptr noundef %0) local_unnamed_addr #0 {
  %2 = load ptr, ptr @stepmgr_ops, align 8
  %3 = getelementptr inbounds nuw i8, ptr %2, i64 48
  %4 = load ptr, ptr %3, align 8
  %5 = getelementptr inbounds nuw i8, ptr %0, i64 8
  %6 = load i32, ptr %5, align 8
  %7 = tail call ptr %4(i32 noundef %6) #6
  %8 = tail call i64 @time(ptr noundef null) #6
  %9 = icmp eq ptr %7, null
  br i1 %9, label %19, label %10

10:                                               ; preds = %1
  %11 = getelementptr inbounds nuw i8, ptr %7, i64 968
  store i64 %8, ptr %11, align 8
  %12 = getelementptr inbounds nuw i8, ptr %0, i64 16
  %13 = load i32, ptr %12, align 8
  %14 = icmp eq i32 %13, -2
  br i1 %14, label %19, label %15

15:                                               ; preds = %10
  %16 = tail call ptr @find_step_record(ptr noundef nonnull %7, ptr noundef nonnull %0) #6
  %.not = icmp eq ptr %16, null
  br i1 %.not, label %19, label %17

17:                                               ; preds = %15
  %18 = getelementptr inbounds nuw i8, ptr %16, i64 344
  store i64 %8, ptr %18, align 8
  br label %19

19:                                               ; preds = %15, %17, %10, %1
  ret void
}